; Function Attrs: mustprogress uwtable
define hidden void @_ZN7counter6updateEji(ptr noundef nonnull align 8 dereferenceable(24) %this, i32 noundef %el, i32 noundef %delta) local_unnamed_addr #3 align 2 {
entry:
  %temp.i.i.i.i = alloca %struct._key_data, align 8
  %et.i.i.i = alloca ptr, align 8
  call void @llvm.lifetime.start.p0(i64 8, ptr nonnull %et.i.i.i)
  call void @llvm.lifetime.start.p0(i64 8, ptr nonnull %temp.i.i.i.i)
  %ref.tmp.sroa.0.0.insert.ext.i.i = zext i32 %el to i64
  store i64 %ref.tmp.sroa.0.0.insert.ext.i.i, ptr %temp.i.i.i.i, align 8
  %call.i.i.i.i = call noundef zeroext i1 @_ZN14core_hashtableI17default_map_entryIjiEN9table2mapIS1_6u_hash4u_eqE15entry_hash_procENS5_13entry_eq_procEE24insert_if_not_there_coreEO9_key_dataIjiERPS1_(ptr noundef nonnull align 8 dereferenceable(20) %this, ptr noundef nonnull align 4 dereferenceable(8) %temp.i.i.i.i, ptr noundef nonnull align 8 dereferenceable(8) %et.i.i.i)
  call void @llvm.lifetime.end.p0(i64 8, ptr nonnull %temp.i.i.i.i)
  %0 = load ptr, ptr %et.i.i.i, align 8
  call void @llvm.lifetime.end.p0(i64 8, ptr nonnull %et.i.i.i)
  %m_value.i.i = getelementptr inbounds i8, ptr %0, i64 12
  %1 = load i32, ptr %m_value.i.i, align 4
  %add = add nsw i32 %1, %delta
  store i32 %add, ptr %m_value.i.i, align 4
  ret void
}